target datalayout = "e-m:e-p270:32:32-p271:32:32-p272:64:64-i64:64-f80:128-n8:16:32:64-S128"
target triple = "x86_64-pc-linux-gnu"

%struct.point = type { i32, i32, i32 }

@.str = private unnamed_addr constant [3 x i8] c"%d\00", align 1
@.str.1 = private unnamed_addr constant [7 x i8] c"%d%d%d\00", align 1
@.str.2 = private unnamed_addr constant [29 x i8] c"(%d,%d,%d)-(%d,%d,%d)=%.2lf\0A\00", align 1

; Function Attrs: noinline nounwind uwtable
define dso_local i32 @main() #0 {
  %1 = alloca i32, align 4
  %2 = alloca [10 x %struct.point], align 16
  %3 = alloca i32, align 4
  %4 = alloca i32, align 4
  %5 = alloca i32, align 4
  %6 = alloca i32, align 4
  %7 = alloca [45 x i32], align 16
  %8 = alloca [45 x i32], align 16
  %9 = alloca i32, align 4
  %10 = alloca [45 x double], align 16
  %11 = alloca double, align 8
  store i32 0, i32* %1, align 4
  store i32 0, i32* %6, align 4
  %12 = call i32 (i8*, ...) @__isoc99_scanf(i8* getelementptr inbounds ([3 x i8], [3 x i8]* @.str, i64 0, i64 0), i32* %3)
  store i32 0, i32* %4, align 4
  br label %13

13:                                               ; preds = %31, %0
  %14 = load i32, i32* %4, align 4
  %15 = load i32, i32* %3, align 4
  %16 = icmp slt i32 %14, %15
  br i1 %16, label %17, label %34

17:                                               ; preds = %13
  %18 = load i32, i32* %4, align 4
  %19 = sext i32 %18 to i64
  %20 = getelementptr inbounds [10 x %struct.point], [10 x %struct.point]* %2, i64 0, i64 %19
  %21 = getelementptr inbounds %struct.point, %struct.point* %20, i32 0, i32 0
  %22 = load i32, i32* %4, align 4
  %23 = sext i32 %22 to i64
  %24 = getelementptr inbounds [10 x %struct.point], [10 x %struct.point]* %2, i64 0, i64 %23
  %25 = getelementptr inbounds %struct.point, %struct.point* %24, i32 0, i32 1
  %26 = load i32, i32* %4, align 4
  %27 = sext i32 %26 to i64
  %28 = getelementptr inbounds [10 x %struct.point], [10 x %struct.point]* %2, i64 0, i64 %27
  %29 = getelementptr inbounds %struct.point, %struct.point* %28, i32 0, i32 2
  %30 = call i32 (i8*, ...) @__isoc99_scanf(i8* getelementptr inbounds ([7 x i8], [7 x i8]* @.str.1, i64 0, i64 0), i32* %21, i32* %25, i32* %29)
  br label %31

31:                                               ; preds = %17
  %32 = load i32, i32* %4, align 4
  %33 = add nsw i32 %32, 1
  store i32 %33, i32* %4, align 4
  br label %13

34:                                               ; preds = %13
  store i32 0, i32* %4, align 4
  br label %35

35:                                               ; preds = %137, %34
  %36 = load i32, i32* %4, align 4
  %37 = load i32, i32* %3, align 4
  %38 = icmp slt i32 %36, %37
  br i1 %38, label %39, label %140

39:                                               ; preds = %35
  %40 = load i32, i32* %4, align 4
  %41 = add nsw i32 %40, 1
  store i32 %41, i32* %5, align 4
  br label %42

42:                                               ; preds = %133, %39
  %43 = load i32, i32* %5, align 4
  %44 = load i32, i32* %3, align 4
  %45 = icmp slt i32 %43, %44
  br i1 %45, label %46, label %136

46:                                               ; preds = %42
  %47 = load i32, i32* %4, align 4
  %48 = sext i32 %47 to i64
  %49 = getelementptr inbounds [10 x %struct.point], [10 x %struct.point]* %2, i64 0, i64 %48
  %50 = getelementptr inbounds %struct.point, %struct.point* %49, i32 0, i32 0
  %51 = load i32, i32* %50, align 4
  %52 = load i32, i32* %5, align 4
  %53 = sext i32 %52 to i64
  %54 = getelementptr inbounds [10 x %struct.point], [10 x %struct.point]* %2, i64 0, i64 %53
  %55 = getelementptr inbounds %struct.point, %struct.point* %54, i32 0, i32 0
  %56 = load i32, i32* %55, align 4
  %57 = sub nsw i32 %51, %56
  %58 = load i32, i32* %4, align 4
  %59 = sext i32 %58 to i64
  %60 = getelementptr inbounds [10 x %struct.point], [10 x %struct.point]* %2, i64 0, i64 %59
  %61 = getelementptr inbounds %struct.point, %struct.point* %60, i32 0, i32 0
  %62 = load i32, i32* %61, align 4
  %63 = load i32, i32* %5, align 4
  %64 = sext i32 %63 to i64
  %65 = getelementptr inbounds [10 x %struct.point], [10 x %struct.point]* %2, i64 0, i64 %64
  %66 = getelementptr inbounds %struct.point, %struct.point* %65, i32 0, i32 0
  %67 = load i32, i32* %66, align 4
  %68 = sub nsw i32 %62, %67
  %69 = mul nsw i32 %57, %68
  %70 = load i32, i32* %4, align 4
  %71 = sext i32 %70 to i64
  %72 = getelementptr inbounds [10 x %struct.point], [10 x %struct.point]* %2, i64 0, i64 %71
  %73 = getelementptr inbounds %struct.point, %struct.point* %72, i32 0, i32 1
  %74 = load i32, i32* %73, align 4
  %75 = load i32, i32* %5, align 4
  %76 = sext i32 %75 to i64
  %77 = getelementptr inbounds [10 x %struct.point], [10 x %struct.point]* %2, i64 0, i64 %76
  %78 = getelementptr inbounds %struct.point, %struct.point* %77, i32 0, i32 1
  %79 = load i32, i32* %78, align 4
  %80 = sub nsw i32 %74, %79
  %81 = load i32, i32* %4, align 4
  %82 = sext i32 %81 to i64
  %83 = getelementptr inbounds [10 x %struct.point], [10 x %struct.point]* %2, i64 0, i64 %82
  %84 = getelementptr inbounds %struct.point, %struct.point* %83, i32 0, i32 1
  %85 = load i32, i32* %84, align 4
  %86 = load i32, i32* %5, align 4
  %87 = sext i32 %86 to i64
  %88 = getelementptr inbounds [10 x %struct.point], [10 x %struct.point]* %2, i64 0, i64 %87
  %89 = getelementptr inbounds %struct.point, %struct.point* %88, i32 0, i32 1
  %90 = load i32, i32* %89, align 4
  %91 = sub nsw i32 %85, %90
  %92 = mul nsw i32 %80, %91
  %93 = add nsw i32 %69, %92
  %94 = load i32, i32* %4, align 4
  %95 = sext i32 %94 to i64
  %96 = getelementptr inbounds [10 x %struct.point], [10 x %struct.point]* %2, i64 0, i64 %95
  %97 = getelementptr inbounds %struct.point, %struct.point* %96, i32 0, i32 2
  %98 = load i32, i32* %97, align 4
  %99 = load i32, i32* %5, align 4
  %100 = sext i32 %99 to i64
  %101 = getelementptr inbounds [10 x %struct.point], [10 x %struct.point]* %2, i64 0, i64 %100
  %102 = getelementptr inbounds %struct.point, %struct.point* %101, i32 0, i32 2
  %103 = load i32, i32* %102, align 4
  %104 = sub nsw i32 %98, %103
  %105 = load i32, i32* %4, align 4
  %106 = sext i32 %105 to i64
  %107 = getelementptr inbounds [10 x %struct.point], [10 x %struct.point]* %2, i64 0, i64 %106
  %108 = getelementptr inbounds %struct.point, %struct.point* %107, i32 0, i32 2
  %109 = load i32, i32* %108, align 4
  %110 = load i32, i32* %5, align 4
  %111 = sext i32 %110 to i64
  %112 = getelementptr inbounds [10 x %struct.point], [10 x %struct.point]* %2, i64 0, i64 %111
  %113 = getelementptr inbounds %struct.point, %struct.point* %112, i32 0, i32 2
  %114 = load i32, i32* %113, align 4
  %115 = sub nsw i32 %109, %114
  %116 = mul nsw i32 %104, %115
  %117 = add nsw i32 %93, %116
  %118 = sitofp i32 %117 to double
  %119 = call double @sqrt(double %118) #3
  %120 = load i32, i32* %6, align 4
  %121 = sext i32 %120 to i64
  %122 = getelementptr inbounds [45 x double], [45 x double]* %10, i64 0, i64 %121
  store double %119, double* %122, align 8
  %123 = load i32, i32* %4, align 4
  %124 = load i32, i32* %6, align 4
  %125 = sext i32 %124 to i64
  %126 = getelementptr inbounds [45 x i32], [45 x i32]* %7, i64 0, i64 %125
  store i32 %123, i32* %126, align 4
  %127 = load i32, i32* %5, align 4
  %128 = load i32, i32* %6, align 4
  %129 = sext i32 %128 to i64
  %130 = getelementptr inbounds [45 x i32], [45 x i32]* %8, i64 0, i64 %129
  store i32 %127, i32* %130, align 4
  %131 = load i32, i32* %6, align 4
  %132 = add nsw i32 %131, 1
  store i32 %132, i32* %6, align 4
  br label %133

133:                                              ; preds = %46
  %134 = load i32, i32* %5, align 4
  %135 = add nsw i32 %134, 1
  store i32 %135, i32* %5, align 4
  br label %42

136:                                              ; preds = %42
  br label %137

137:                                              ; preds = %136
  %138 = load i32, i32* %4, align 4
  %139 = add nsw i32 %138, 1
  store i32 %139, i32* %4, align 4
  br label %35

140:                                              ; preds = %35
  store i32 0, i32* %4, align 4
  br label %141

141:                                              ; preds = %220, %140
  %142 = load i32, i32* %4, align 4
  %143 = load i32, i32* %6, align 4
  %144 = icmp slt i32 %142, %143
  br i1 %144, label %145, label %223

145:                                              ; preds = %141
  store i32 0, i32* %5, align 4
  br label %146

146:                                              ; preds = %216, %145
  %147 = load i32, i32* %5, align 4
  %148 = load i32, i32* %6, align 4
  %149 = load i32, i32* %4, align 4
  %150 = sub nsw i32 %148, %149
  %151 = icmp slt i32 %147, %150
  br i1 %151, label %152, label %219

152:                                              ; preds = %146
  %153 = load i32, i32* %5, align 4
  %154 = sext i32 %153 to i64
  %155 = getelementptr inbounds [45 x double], [45 x double]* %10, i64 0, i64 %154
  %156 = load double, double* %155, align 8
  %157 = load i32, i32* %5, align 4
  %158 = add nsw i32 %157, 1
  %159 = sext i32 %158 to i64
  %160 = getelementptr inbounds [45 x double], [45 x double]* %10, i64 0, i64 %159
  %161 = load double, double* %160, align 8
  %162 = fcmp olt double %156, %161
  br i1 %162, label %163, label %215

163:                                              ; preds = %152
  %164 = load i32, i32* %5, align 4
  %165 = sext i32 %164 to i64
  %166 = getelementptr inbounds [45 x i32], [45 x i32]* %7, i64 0, i64 %165
  %167 = load i32, i32* %166, align 4
  store i32 %167, i32* %9, align 4
  %168 = load i32, i32* %5, align 4
  %169 = add nsw i32 %168, 1
  %170 = sext i32 %169 to i64
  %171 = getelementptr inbounds [45 x i32], [45 x i32]* %7, i64 0, i64 %170
  %172 = load i32, i32* %171, align 4
  %173 = load i32, i32* %5, align 4
  %174 = sext i32 %173 to i64
  %175 = getelementptr inbounds [45 x i32], [45 x i32]* %7, i64 0, i64 %174
  store i32 %172, i32* %175, align 4
  %176 = load i32, i32* %9, align 4
  %177 = load i32, i32* %5, align 4
  %178 = add nsw i32 %177, 1
  %179 = sext i32 %178 to i64
  %180 = getelementptr inbounds [45 x i32], [45 x i32]* %7, i64 0, i64 %179
  store i32 %176, i32* %180, align 4
  %181 = load i32, i32* %5, align 4
  %182 = sext i32 %181 to i64
  %183 = getelementptr inbounds [45 x i32], [45 x i32]* %8, i64 0, i64 %182
  %184 = load i32, i32* %183, align 4
  store i32 %184, i32* %9, align 4
  %185 = load i32, i32* %5, align 4
  %186 = add nsw i32 %185, 1
  %187 = sext i32 %186 to i64
  %188 = getelementptr inbounds [45 x i32], [45 x i32]* %8, i64 0, i64 %187
  %189 = load i32, i32* %188, align 4
  %190 = load i32, i32* %5, align 4
  %191 = sext i32 %190 to i64
  %192 = getelementptr inbounds [45 x i32], [45 x i32]* %8, i64 0, i64 %191
  store i32 %189, i32* %192, align 4
  %193 = load i32, i32* %9, align 4
  %194 = load i32, i32* %5, align 4
  %195 = add nsw i32 %194, 1
  %196 = sext i32 %195 to i64
  %197 = getelementptr inbounds [45 x i32], [45 x i32]* %8, i64 0, i64 %196
  store i32 %193, i32* %197, align 4
  %198 = load i32, i32* %5, align 4
  %199 = sext i32 %198 to i64
  %200 = getelementptr inbounds [45 x double], [45 x double]* %10, i64 0, i64 %199
  %201 = load double, double* %200, align 8
  store double %201, double* %11, align 8
  %202 = load i32, i32* %5, align 4
  %203 = add nsw i32 %202, 1
  %204 = sext i32 %203 to i64
  %205 = getelementptr inbounds [45 x double], [45 x double]* %10, i64 0, i64 %204
  %206 = load double, double* %205, align 8
  %207 = load i32, i32* %5, align 4
  %208 = sext i32 %207 to i64
  %209 = getelementptr inbounds [45 x double], [45 x double]* %10, i64 0, i64 %208
  store double %206, double* %209, align 8
  %210 = load double, double* %11, align 8
  %211 = load i32, i32* %5, align 4
  %212 = add nsw i32 %211, 1
  %213 = sext i32 %212 to i64
  %214 = getelementptr inbounds [45 x double], [45 x double]* %10, i64 0, i64 %213
  store double %210, double* %214, align 8
  br label %215

215:                                              ; preds = %163, %152
  br label %216

216:                                              ; preds = %215
  %217 = load i32, i32* %5, align 4
  %218 = add nsw i32 %217, 1
  store i32 %218, i32* %5, align 4
  br label %146

219:                                              ; preds = %146
  br label %220

220:                                              ; preds = %219
  %221 = load i32, i32* %4, align 4
  %222 = add nsw i32 %221, 1
  store i32 %222, i32* %4, align 4
  br label %141

223:                                              ; preds = %141
  store i32 0, i32* %4, align 4
  br label %224

224:                                              ; preds = %282, %223
  %225 = load i32, i32* %4, align 4
  %226 = load i32, i32* %6, align 4
  %227 = icmp slt i32 %225, %226
  br i1 %227, label %228, label %285

228:                                              ; preds = %224
  %229 = load i32, i32* %4, align 4
  %230 = sext i32 %229 to i64
  %231 = getelementptr inbounds [45 x i32], [45 x i32]* %7, i64 0, i64 %230
  %232 = load i32, i32* %231, align 4
  %233 = sext i32 %232 to i64
  %234 = getelementptr inbounds [10 x %struct.point], [10 x %struct.point]* %2, i64 0, i64 %233
  %235 = getelementptr inbounds %struct.point, %struct.point* %234, i32 0, i32 0
  %236 = load i32, i32* %235, align 4
  %237 = load i32, i32* %4, align 4
  %238 = sext i32 %237 to i64
  %239 = getelementptr inbounds [45 x i32], [45 x i32]* %7, i64 0, i64 %238
  %240 = load i32, i32* %239, align 4
  %241 = sext i32 %240 to i64
  %242 = getelementptr inbounds [10 x %struct.point], [10 x %struct.point]* %2, i64 0, i64 %241
  %243 = getelementptr inbounds %struct.point, %struct.point* %242, i32 0, i32 1
  %244 = load i32, i32* %243, align 4
  %245 = load i32, i32* %4, align 4
  %246 = sext i32 %245 to i64
  %247 = getelementptr inbounds [45 x i32], [45 x i32]* %7, i64 0, i64 %246
  %248 = load i32, i32* %247, align 4
  %249 = sext i32 %248 to i64
  %250 = getelementptr inbounds [10 x %struct.point], [10 x %struct.point]* %2, i64 0, i64 %249
  %251 = getelementptr inbounds %struct.point, %struct.point* %250, i32 0, i32 2
  %252 = load i32, i32* %251, align 4
  %253 = load i32, i32* %4, align 4
  %254 = sext i32 %253 to i64
  %255 = getelementptr inbounds [45 x i32], [45 x i32]* %8, i64 0, i64 %254
  %256 = load i32, i32* %255, align 4
  %257 = sext i32 %256 to i64
  %258 = getelementptr inbounds [10 x %struct.point], [10 x %struct.point]* %2, i64 0, i64 %257
  %259 = getelementptr inbounds %struct.point, %struct.point* %258, i32 0, i32 0
  %260 = load i32, i32* %259, align 4
  %261 = load i32, i32* %4, align 4
  %262 = sext i32 %261 to i64
  %263 = getelementptr inbounds [45 x i32], [45 x i32]* %8, i64 0, i64 %262
  %264 = load i32, i32* %263, align 4
  %265 = sext i32 %264 to i64
  %266 = getelementptr inbounds [10 x %struct.point], [10 x %struct.point]* %2, i64 0, i64 %265
  %267 = getelementptr inbounds %struct.point, %struct.point* %266, i32 0, i32 1
  %268 = load i32, i32* %267, align 4
  %269 = load i32, i32* %4, align 4
  %270 = sext i32 %269 to i64
  %271 = getelementptr inbounds [45 x i32], [45 x i32]* %8, i64 0, i64 %270
  %272 = load i32, i32* %271, align 4
  %273 = sext i32 %272 to i64
  %274 = getelementptr inbounds [10 x %struct.point], [10 x %struct.point]* %2, i64 0, i64 %273
  %275 = getelementptr inbounds %struct.point, %struct.point* %274, i32 0, i32 2
  %276 = load i32, i32* %275, align 4
  %277 = load i32, i32* %4, align 4
  %278 = sext i32 %277 to i64
  %279 = getelementptr inbounds [45 x double], [45 x double]* %10, i64 0, i64 %278
  %280 = load double, double* %279, align 8
  %281 = call i32 (i8*, ...) @printf(i8* getelementptr inbounds ([29 x i8], [29 x i8]* @.str.2, i64 0, i64 0), i32 %236, i32 %244, i32 %252, i32 %260, i32 %268, i32 %276, double %280)
  br label %282

282:                                              ; preds = %228
  %283 = load i32, i32* %4, align 4
  %284 = add nsw i32 %283, 1
  store i32 %284, i32* %4, align 4
  br label %224

285:                                              ; preds = %224
  ret i32 0
}